#include <math.h>
#include <stdio.h>
#include <stdlib.h>
#include <string.h>

int main()
{
	int m,i,k,x,p=0,q=0;
	scanf("%d",&m);
	if(m==6)
		printf("3 3");
	else
	for(i=3;i<=m/2;i+=2)
	{
		k=m-i;
		for(x=2;x<=sqrt(i);x++)
		{
			if((i%x)==0)
				p=1;
		}
		for(x=2;x<=sqrt(k);x++)
		{
			if((k%x)==0)
				q=1;
		}
		if(p==0&&q==0)
			printf("%d %d\n",i,k);
			p=0;
			q=0;
	}
	return 0;
}