; ModuleID = '43/1083.c'
source_filename = "43/1083.c"
target datalayout = "e-m:e-p270:32:32-p271:32:32-p272:64:64-i64:64-f80:128-n8:16:32:64-S128"
target triple = "x86_64-pc-linux-gnu"

@.str = private unnamed_addr constant [3 x i8] c"%d\00", align 1
@.str.1 = private unnamed_addr constant [4 x i8] c"3 3\00", align 1
@.str.2 = private unnamed_addr constant [7 x i8] c"%d %d\0A\00", align 1

; Function Attrs: noinline nounwind uwtable
define dso_local i32 @main() #0 {
  %1 = alloca i32, align 4
  %2 = alloca i32, align 4
  %3 = alloca i32, align 4
  %4 = alloca i32, align 4
  %5 = alloca i32, align 4
  %6 = alloca i32, align 4
  %7 = alloca i32, align 4
  store i32 0, i32* %1, align 4
  store i32 0, i32* %6, align 4
  store i32 0, i32* %7, align 4
  %8 = call i32 (i8*, ...) @__isoc99_scanf(i8* getelementptr inbounds ([3 x i8], [3 x i8]* @.str, i64 0, i64 0), i32* %2)
  %9 = load i32, i32* %2, align 4
  %10 = icmp eq i32 %9, 6
  br i1 %10, label %11, label %13

11:                                               ; preds = %0
  %12 = call i32 (i8*, ...) @printf(i8* getelementptr inbounds ([4 x i8], [4 x i8]* @.str.1, i64 0, i64 0))
  br label %73

13:                                               ; preds = %0
  store i32 3, i32* %3, align 4
  br label %14

14:                                               ; preds = %69, %13
  %15 = load i32, i32* %3, align 4
  %16 = load i32, i32* %2, align 4
  %17 = sdiv i32 %16, 2
  %18 = icmp sle i32 %15, %17
  br i1 %18, label %19, label %72

19:                                               ; preds = %14
  %20 = load i32, i32* %2, align 4
  %21 = load i32, i32* %3, align 4
  %22 = sub nsw i32 %20, %21
  store i32 %22, i32* %4, align 4
  store i32 2, i32* %5, align 4
  br label %23

23:                                               ; preds = %37, %19
  %24 = load i32, i32* %5, align 4
  %25 = sitofp i32 %24 to double
  %26 = load i32, i32* %3, align 4
  %27 = sitofp i32 %26 to double
  %28 = call double @sqrt(double %27) #3
  %29 = fcmp ole double %25, %28
  br i1 %29, label %30, label %40

30:                                               ; preds = %23
  %31 = load i32, i32* %3, align 4
  %32 = load i32, i32* %5, align 4
  %33 = srem i32 %31, %32
  %34 = icmp eq i32 %33, 0
  br i1 %34, label %35, label %36

35:                                               ; preds = %30
  store i32 1, i32* %6, align 4
  br label %36

36:                                               ; preds = %35, %30
  br label %37

37:                                               ; preds = %36
  %38 = load i32, i32* %5, align 4
  %39 = add nsw i32 %38, 1
  store i32 %39, i32* %5, align 4
  br label %23

40:                                               ; preds = %23
  store i32 2, i32* %5, align 4
  br label %41

41:                                               ; preds = %55, %40
  %42 = load i32, i32* %5, align 4
  %43 = sitofp i32 %42 to double
  %44 = load i32, i32* %4, align 4
  %45 = sitofp i32 %44 to double
  %46 = call double @sqrt(double %45) #3
  %47 = fcmp ole double %43, %46
  br i1 %47, label %48, label %58

48:                                               ; preds = %41
  %49 = load i32, i32* %4, align 4
  %50 = load i32, i32* %5, align 4
  %51 = srem i32 %49, %50
  %52 = icmp eq i32 %51, 0
  br i1 %52, label %53, label %54

53:                                               ; preds = %48
  store i32 1, i32* %7, align 4
  br label %54

54:                                               ; preds = %53, %48
  br label %55

55:                                               ; preds = %54
  %56 = load i32, i32* %5, align 4
  %57 = add nsw i32 %56, 1
  store i32 %57, i32* %5, align 4
  br label %41

58:                                               ; preds = %41
  %59 = load i32, i32* %6, align 4
  %60 = icmp eq i32 %59, 0
  br i1 %60, label %61, label %68

61:                                               ; preds = %58
  %62 = load i32, i32* %7, align 4
  %63 = icmp eq i32 %62, 0
  br i1 %63, label %64, label %68

64:                                               ; preds = %61
  %65 = load i32, i32* %3, align 4
  %66 = load i32, i32* %4, align 4
  %67 = call i32 (i8*, ...) @printf(i8* getelementptr inbounds ([7 x i8], [7 x i8]* @.str.2, i64 0, i64 0), i32 %65, i32 %66)
  br label %68

68:                                               ; preds = %64, %61, %58
  store i32 0, i32* %6, align 4
  store i32 0, i32* %7, align 4
  br label %69

69:                                               ; preds = %68
  %70 = load i32, i32* %3, align 4
  %71 = add nsw i32 %70, 2
  store i32 %71, i32* %3, align 4
  br label %14

72:                                               ; preds = %14
  br label %73

73:                                               ; preds = %72, %11
  ret i32 0
}

declare dso_local i32 @__isoc99_scanf(i8*, ...) #1

declare dso_local i32 @printf(i8*, ...) #1

; Function Attrs: nounwind
declare dso_local double @sqrt(double) #2


!llvm.module.flags = !{!0}
!llvm.ident = !{!1}

!0 = !{i32 1, !"wchar_size", i32 4}
!1 = !{!"clang version 10.0.0-4ubuntu1 "}
