; ModuleID = 'source-C-CXX/42/1083.c'
source_filename = "source-C-CXX/42/1083.c"
target datalayout = "e-m:e-p270:32:32-p271:32:32-p272:64:64-i64:64-f80:128-n8:16:32:64-S128"
target triple = "x86_64-pc-linux-gnu"

@.str = private unnamed_addr constant [3 x i8] c"%d\00", align 1
@.str.1 = private unnamed_addr constant [4 x i8] c"3 3\00", align 1
@.str.2 = private unnamed_addr constant [7 x i8] c"%d %d\0A\00", align 1

; Function Attrs: nofree nounwind sspstrong uwtable
define dso_local i32 @main() local_unnamed_addr #0 {
  %1 = alloca i32, align 4
  %2 = bitcast i32* %1 to i8*
  call void @llvm.lifetime.start.p0i8(i64 4, i8* nonnull %2) #4
  %3 = call i32 (i8*, ...) @__isoc99_scanf(i8* getelementptr inbounds ([3 x i8], [3 x i8]* @.str, i64 0, i64 0), i32* nonnull %1)
  %4 = load i32, i32* %1, align 4, !tbaa !5
  %5 = icmp eq i32 %4, 6
  br i1 %5, label %8, label %6

6:                                                ; preds = %0
  %7 = icmp slt i32 %4, 6
  br i1 %7, label %54, label %10

8:                                                ; preds = %0
  %9 = call i32 (i8*, ...) @printf(i8* nonnull dereferenceable(1) getelementptr inbounds ([4 x i8], [4 x i8]* @.str.1, i64 0, i64 0))
  br label %54

10:                                               ; preds = %6, %49
  %11 = phi i32 [ %51, %49 ], [ %4, %6 ]
  %12 = phi i32 [ %50, %49 ], [ 3, %6 ]
  %13 = sub nsw i32 %11, %12
  %14 = sitofp i32 %12 to double
  %15 = call double @sqrt(double %14) #4
  %16 = fcmp ult double %15, 2.000000e+00
  br i1 %16, label %17, label %22

17:                                               ; preds = %22, %10
  %18 = phi i32 [ 0, %10 ], [ %27, %22 ]
  %19 = sitofp i32 %13 to double
  %20 = call double @sqrt(double %19) #4
  %21 = fcmp ult double %20, 2.000000e+00
  br i1 %21, label %42, label %32

22:                                               ; preds = %10, %22
  %23 = phi i32 [ %27, %22 ], [ 0, %10 ]
  %24 = phi i32 [ %28, %22 ], [ 2, %10 ]
  %25 = urem i32 %12, %24
  %26 = icmp eq i32 %25, 0
  %27 = select i1 %26, i32 1, i32 %23
  %28 = add nuw nsw i32 %24, 1
  %29 = sitofp i32 %28 to double
  %30 = call double @sqrt(double %14) #4
  %31 = fcmp ult double %30, %29
  br i1 %31, label %17, label %22, !llvm.loop !9

32:                                               ; preds = %17, %32
  %33 = phi i32 [ %37, %32 ], [ 0, %17 ]
  %34 = phi i32 [ %38, %32 ], [ 2, %17 ]
  %35 = srem i32 %13, %34
  %36 = icmp eq i32 %35, 0
  %37 = select i1 %36, i32 1, i32 %33
  %38 = add nuw nsw i32 %34, 1
  %39 = sitofp i32 %38 to double
  %40 = call double @sqrt(double %19) #4
  %41 = fcmp ult double %40, %39
  br i1 %41, label %42, label %32, !llvm.loop !11

42:                                               ; preds = %32, %17
  %43 = phi i32 [ 0, %17 ], [ %37, %32 ]
  %44 = icmp eq i32 %18, 0
  %45 = icmp eq i32 %43, 0
  %46 = select i1 %44, i1 %45, i1 false
  br i1 %46, label %47, label %49

47:                                               ; preds = %42
  %48 = call i32 (i8*, ...) @printf(i8* nonnull dereferenceable(1) getelementptr inbounds ([7 x i8], [7 x i8]* @.str.2, i64 0, i64 0), i32 %12, i32 %13)
  br label %49

49:                                               ; preds = %47, %42
  %50 = add nuw nsw i32 %12, 2
  %51 = load i32, i32* %1, align 4, !tbaa !5
  %52 = sdiv i32 %51, 2
  %53 = icmp sgt i32 %50, %52
  br i1 %53, label %54, label %10, !llvm.loop !12

54:                                               ; preds = %49, %6, %8
  call void @llvm.lifetime.end.p0i8(i64 4, i8* nonnull %2) #4
  ret i32 0
}

; Function Attrs: argmemonly mustprogress nofree nosync nounwind willreturn
declare void @llvm.lifetime.start.p0i8(i64 immarg, i8* nocapture) #1

; Function Attrs: nofree nounwind
declare noundef i32 @__isoc99_scanf(i8* nocapture noundef readonly, ...) local_unnamed_addr #2

; Function Attrs: nofree nounwind
declare noundef i32 @printf(i8* nocapture noundef readonly, ...) local_unnamed_addr #2

; Function Attrs: mustprogress nofree nounwind willreturn
declare double @sqrt(double) local_unnamed_addr #3

; Function Attrs: argmemonly mustprogress nofree nosync nounwind willreturn
declare void @llvm.lifetime.end.p0i8(i64 immarg, i8* nocapture) #1


!llvm.module.flags = !{!0, !1, !2, !3}
!llvm.ident = !{!4}

!0 = !{i32 1, !"wchar_size", i32 4}
!1 = !{i32 7, !"PIC Level", i32 2}
!2 = !{i32 7, !"PIE Level", i32 2}
!3 = !{i32 7, !"uwtable", i32 1}
!4 = !{!"clang version 13.0.0"}
!5 = !{!6, !6, i64 0}
!6 = !{!"int", !7, i64 0}
!7 = !{!"omnipotent char", !8, i64 0}
!8 = !{!"Simple C/C++ TBAA"}
!9 = distinct !{!9, !10}
!10 = !{!"llvm.loop.mustprogress"}
!11 = distinct !{!11, !10}
!12 = distinct !{!12, !10}
